target datalayout = "e-m:e-p270:32:32-p271:32:32-p272:64:64-i64:64-i128:128-f80:128-n8:16:32:64-S128"
target triple = "x86_64-pc-linux-gnu"

%struct.s_x4 = type { i32, i32, ptr, ptr }
%struct.s_x4node = type { ptr, ptr, ptr }

@x4a = internal global ptr null, align 8

; Function Attrs: null_pointer_is_valid sspstrong uwtable
define hidden void @Configtable_clear(ptr noundef %0) #0 {
  %2 = alloca ptr, align 8
  %3 = alloca i32, align 4
  %4 = alloca i32, align 4
  store ptr %0, ptr %2, align 8
  call void @llvm.lifetime.start.p0(i64 4, ptr %3) #18
  %5 = load ptr, ptr @x4a, align 8
  %6 = icmp eq ptr %5, null
  br i1 %6, label %12, label %7

7:                                                ; preds = %1
  %8 = load ptr, ptr @x4a, align 8
  %9 = getelementptr inbounds nuw %struct.s_x4, ptr %8, i32 0, i32 1
  %10 = load i32, ptr %9, align 4
  %11 = icmp eq i32 %10, 0
  br i1 %11, label %12, label %13

12:                                               ; preds = %7, %1
  store i32 1, ptr %4, align 4
  br label %58

13:                                               ; preds = %7
  %14 = load ptr, ptr %2, align 8
  %15 = icmp ne ptr %14, null
  br i1 %15, label %16, label %38

16:                                               ; preds = %13
  store i32 0, ptr %3, align 4
  br label %17

17:                                               ; preds = %34, %16
  %18 = load i32, ptr %3, align 4
  %19 = load ptr, ptr @x4a, align 8
  %20 = getelementptr inbounds nuw %struct.s_x4, ptr %19, i32 0, i32 1
  %21 = load i32, ptr %20, align 4
  %22 = icmp slt i32 %18, %21
  br i1 %22, label %23, label %37

23:                                               ; preds = %17
  %24 = load ptr, ptr %2, align 8
  %25 = load ptr, ptr @x4a, align 8
  %26 = getelementptr inbounds nuw %struct.s_x4, ptr %25, i32 0, i32 2
  %27 = load ptr, ptr %26, align 8
  %28 = load i32, ptr %3, align 4
  %29 = sext i32 %28 to i64
  %30 = getelementptr %struct.s_x4node, ptr %27, i64 %29
  %31 = getelementptr inbounds nuw %struct.s_x4node, ptr %30, i32 0, i32 0
  %32 = load ptr, ptr %31, align 8
  %33 = call i32 %24(ptr noundef %32)
  br label %34

34:                                               ; preds = %23
  %35 = load i32, ptr %3, align 4
  %36 = add i32 %35, 1
  store i32 %36, ptr %3, align 4
  br label %17, !llvm.loop !74

37:                                               ; preds = %17
  br label %38

38:                                               ; preds = %37, %13
  store i32 0, ptr %3, align 4
  br label %39

39:                                               ; preds = %52, %38
  %40 = load i32, ptr %3, align 4
  %41 = load ptr, ptr @x4a, align 8
  %42 = getelementptr inbounds nuw %struct.s_x4, ptr %41, i32 0, i32 0
  %43 = load i32, ptr %42, align 8
  %44 = icmp slt i32 %40, %43
  br i1 %44, label %45, label %55

45:                                               ; preds = %39
  %46 = load ptr, ptr @x4a, align 8
  %47 = getelementptr inbounds nuw %struct.s_x4, ptr %46, i32 0, i32 3
  %48 = load ptr, ptr %47, align 8
  %49 = load i32, ptr %3, align 4
  %50 = sext i32 %49 to i64
  %51 = getelementptr ptr, ptr %48, i64 %50
  store ptr null, ptr %51, align 8
  br label %52

52:                                               ; preds = %45
  %53 = load i32, ptr %3, align 4
  %54 = add i32 %53, 1
  store i32 %54, ptr %3, align 4
  br label %39, !llvm.loop !75

55:                                               ; preds = %39
  %56 = load ptr, ptr @x4a, align 8
  %57 = getelementptr inbounds nuw %struct.s_x4, ptr %56, i32 0, i32 1
  store i32 0, ptr %57, align 4
  store i32 1, ptr %4, align 4
  br label %58

58:                                               ; preds = %55, %12
  call void @llvm.lifetime.end.p0(i64 4, ptr %3) #18
  ret void
}