; Function Attrs: null_pointer_is_valid sspstrong uwtable
define hidden void @Configtable_clear(ptr noundef readonly captures(address_is_null) %0) local_unnamed_addr #0 {
  %2 = load ptr, ptr @x4a, align 8
  %3 = icmp eq ptr %2, null
  br i1 %3, label %32, label %4

4:                                                ; preds = %1
  %5 = getelementptr inbounds nuw i8, ptr %2, i64 4
  %6 = load i32, ptr %5, align 4
  %7 = icmp eq i32 %6, 0
  br i1 %7, label %32, label %8

8:                                                ; preds = %4
  %.not = icmp ne ptr %0, null
  %9 = icmp sgt i32 %6, 0
  %or.cond = and i1 %.not, %9
  br i1 %or.cond, label %.lr.ph, label %.loopexit

.lr.ph:                                           ; preds = %8, %.lr.ph
  %indvars.iv = phi i64 [ %indvars.iv.next, %.lr.ph ], [ 0, %8 ]
  %10 = phi ptr [ %16, %.lr.ph ], [ %2, %8 ]
  %11 = getelementptr inbounds nuw i8, ptr %10, i64 8
  %12 = load ptr, ptr %11, align 8
  %13 = getelementptr %struct.s_x4node, ptr %12, i64 %indvars.iv
  %14 = load ptr, ptr %13, align 8
  %15 = tail call i32 %0(ptr noundef %14)
  %indvars.iv.next = add nuw nsw i64 %indvars.iv, 1
  %16 = load ptr, ptr @x4a, align 8
  %17 = getelementptr inbounds nuw i8, ptr %16, i64 4
  %18 = load i32, ptr %17, align 4
  %19 = sext i32 %18 to i64
  %20 = icmp slt i64 %indvars.iv.next, %19
  br i1 %20, label %.lr.ph, label %.loopexit, !llvm.loop !86

.loopexit:                                        ; preds = %.lr.ph, %8
  %21 = phi ptr [ %2, %8 ], [ %16, %.lr.ph ]
  %22 = load i32, ptr %21, align 8
  %23 = icmp sgt i32 %22, 0
  br i1 %23, label %.lr.ph11, label %._crit_edge

.lr.ph11:                                         ; preds = %.loopexit
  %24 = getelementptr inbounds nuw i8, ptr %21, i64 16
  br label %25

25:                                               ; preds = %.lr.ph11, %25
  %indvars.iv13 = phi i64 [ 0, %.lr.ph11 ], [ %indvars.iv.next14, %25 ]
  %26 = load ptr, ptr %24, align 8
  %27 = getelementptr ptr, ptr %26, i64 %indvars.iv13
  store ptr null, ptr %27, align 8
  %indvars.iv.next14 = add nuw nsw i64 %indvars.iv13, 1
  %28 = load i32, ptr %21, align 8
  %29 = sext i32 %28 to i64
  %30 = icmp slt i64 %indvars.iv.next14, %29
  br i1 %30, label %25, label %._crit_edge, !llvm.loop !60

._crit_edge:                                      ; preds = %25, %.loopexit
  %31 = getelementptr inbounds nuw i8, ptr %21, i64 4
  store i32 0, ptr %31, align 4
  br label %32

32:                                               ; preds = %1, %4, %._crit_edge
  ret void
}